target datalayout = "e-m:e-p270:32:32-p271:32:32-p272:64:64-i64:64-i128:128-f80:128-n8:16:32:64-S128"
target triple = "x86_64-pc-linux-gnu"

%"struct.duckdb_zstd::FSE_CState_t" = type { i64, ptr, ptr, i32 }
%"struct.duckdb_zstd::FSE_symbolCompressionTransform" = type { i32, i32 }

; Function Attrs: inlinehint mustprogress nounwind uwtable
define internal noundef zeroext i16 @_ZN11duckdb_zstdL10MEM_read16EPKv(ptr noundef %0) #4 {
  %2 = alloca ptr, align 8
  store ptr %0, ptr %2, align 8, !tbaa !17
  %3 = load ptr, ptr %2, align 8, !tbaa !17
  %4 = load i16, ptr %3, align 1, !tbaa !24
  ret i16 %4
}

; Function Attrs: inlinehint mustprogress nounwind uwtable
define internal noundef i32 @_ZN11duckdb_zstdL11FSE_bitCostEPKvjjj(ptr noundef %0, i32 noundef %1, i32 noundef %2, i32 noundef %3) #4 {
  %5 = alloca ptr, align 8
  %6 = alloca i32, align 4
  %7 = alloca i32, align 4
  %8 = alloca i32, align 4
  %9 = alloca ptr, align 8
  %10 = alloca i32, align 4
  %11 = alloca i32, align 4
  %12 = alloca i32, align 4
  %13 = alloca i32, align 4
  %14 = alloca i32, align 4
  %15 = alloca i32, align 4
  store ptr %0, ptr %5, align 8, !tbaa !17
  store i32 %1, ptr %6, align 4, !tbaa !8
  store i32 %2, ptr %7, align 4, !tbaa !8
  store i32 %3, ptr %8, align 4, !tbaa !8
  call void @llvm.lifetime.start.p0(i64 8, ptr %9) #11
  %16 = load ptr, ptr %5, align 8, !tbaa !17
  store ptr %16, ptr %9, align 8, !tbaa !17
  call void @llvm.lifetime.start.p0(i64 4, ptr %10) #11
  %17 = load ptr, ptr %9, align 8, !tbaa !17
  %18 = load i32, ptr %7, align 4, !tbaa !8
  %19 = zext i32 %18 to i64
  %20 = getelementptr inbounds nuw %"struct.duckdb_zstd::FSE_symbolCompressionTransform", ptr %17, i64 %19
  %21 = getelementptr inbounds nuw %"struct.duckdb_zstd::FSE_symbolCompressionTransform", ptr %20, i32 0, i32 1
  %22 = load i32, ptr %21, align 4, !tbaa !22
  %23 = lshr i32 %22, 16
  store i32 %23, ptr %10, align 4, !tbaa !8
  call void @llvm.lifetime.start.p0(i64 4, ptr %11) #11
  %24 = load i32, ptr %10, align 4, !tbaa !8
  %25 = add i32 %24, 1
  %26 = shl i32 %25, 16
  store i32 %26, ptr %11, align 4, !tbaa !8
  call void @llvm.lifetime.start.p0(i64 4, ptr %12) #11
  %27 = load i32, ptr %6, align 4, !tbaa !8
  %28 = shl i32 1, %27
  store i32 %28, ptr %12, align 4, !tbaa !8
  call void @llvm.lifetime.start.p0(i64 4, ptr %13) #11
  %29 = load i32, ptr %11, align 4, !tbaa !8
  %30 = load ptr, ptr %9, align 8, !tbaa !17
  %31 = load i32, ptr %7, align 4, !tbaa !8
  %32 = zext i32 %31 to i64
  %33 = getelementptr inbounds nuw %"struct.duckdb_zstd::FSE_symbolCompressionTransform", ptr %30, i64 %32
  %34 = getelementptr inbounds nuw %"struct.duckdb_zstd::FSE_symbolCompressionTransform", ptr %33, i32 0, i32 1
  %35 = load i32, ptr %34, align 4, !tbaa !22
  %36 = load i32, ptr %12, align 4, !tbaa !8
  %37 = add i32 %35, %36
  %38 = sub i32 %29, %37
  store i32 %38, ptr %13, align 4, !tbaa !8
  call void @llvm.lifetime.start.p0(i64 4, ptr %14) #11
  %39 = load i32, ptr %13, align 4, !tbaa !8
  %40 = load i32, ptr %8, align 4, !tbaa !8
  %41 = shl i32 %39, %40
  %42 = load i32, ptr %6, align 4, !tbaa !8
  %43 = lshr i32 %41, %42
  store i32 %43, ptr %14, align 4, !tbaa !8
  call void @llvm.lifetime.start.p0(i64 4, ptr %15) #11
  %44 = load i32, ptr %8, align 4, !tbaa !8
  %45 = shl i32 1, %44
  store i32 %45, ptr %15, align 4, !tbaa !8
  %46 = load i32, ptr %10, align 4, !tbaa !8
  %47 = add i32 %46, 1
  %48 = load i32, ptr %15, align 4, !tbaa !8
  %49 = mul i32 %47, %48
  %50 = load i32, ptr %14, align 4, !tbaa !8
  %51 = sub i32 %49, %50
  call void @llvm.lifetime.end.p0(i64 4, ptr %15) #11
  call void @llvm.lifetime.end.p0(i64 4, ptr %14) #11
  call void @llvm.lifetime.end.p0(i64 4, ptr %13) #11
  call void @llvm.lifetime.end.p0(i64 4, ptr %12) #11
  call void @llvm.lifetime.end.p0(i64 4, ptr %11) #11
  call void @llvm.lifetime.end.p0(i64 4, ptr %10) #11
  call void @llvm.lifetime.end.p0(i64 8, ptr %9) #11
  ret i32 %51
}

; Function Attrs: mustprogress nounwind uwtable
define internal noundef i32 @_ZN11duckdb_zstdL25ZSTD_getFSEMaxSymbolValueEPKj(ptr noundef %0) #3 {
  %2 = alloca ptr, align 8
  %3 = alloca ptr, align 8
  %4 = alloca ptr, align 8
  %5 = alloca i32, align 4
  store ptr %0, ptr %2, align 8, !tbaa !3
  call void @llvm.lifetime.start.p0(i64 8, ptr %3) #11
  %6 = load ptr, ptr %2, align 8, !tbaa !3
  store ptr %6, ptr %3, align 8, !tbaa !17
  call void @llvm.lifetime.start.p0(i64 8, ptr %4) #11
  %7 = load ptr, ptr %3, align 8, !tbaa !17
  store ptr %7, ptr %4, align 8, !tbaa !18
  call void @llvm.lifetime.start.p0(i64 4, ptr %5) #11
  %8 = load ptr, ptr %4, align 8, !tbaa !18
  %9 = getelementptr inbounds i16, ptr %8, i64 1
  %10 = call noundef zeroext i16 @_ZN11duckdb_zstdL10MEM_read16EPKv(ptr noundef %9)
  %11 = zext i16 %10 to i32
  store i32 %11, ptr %5, align 4, !tbaa !8
  %12 = load i32, ptr %5, align 4, !tbaa !8
  call void @llvm.lifetime.end.p0(i64 4, ptr %5) #11
  call void @llvm.lifetime.end.p0(i64 8, ptr %4) #11
  call void @llvm.lifetime.end.p0(i64 8, ptr %3) #11
  ret i32 %12
}

; Function Attrs: inlinehint mustprogress uwtable
define internal void @_ZN11duckdb_zstdL14FSE_initCStateEPNS_12FSE_CState_tEPKj(ptr noundef %0, ptr noundef %1) #2 {
  %3 = alloca ptr, align 8
  %4 = alloca ptr, align 8
  %5 = alloca ptr, align 8
  %6 = alloca ptr, align 8
  %7 = alloca i32, align 4
  store ptr %0, ptr %3, align 8, !tbaa !17
  store ptr %1, ptr %4, align 8, !tbaa !3
  call void @llvm.lifetime.start.p0(i64 8, ptr %5) #11
  %8 = load ptr, ptr %4, align 8, !tbaa !3
  store ptr %8, ptr %5, align 8, !tbaa !17
  call void @llvm.lifetime.start.p0(i64 8, ptr %6) #11
  %9 = load ptr, ptr %5, align 8, !tbaa !17
  store ptr %9, ptr %6, align 8, !tbaa !18
  call void @llvm.lifetime.start.p0(i64 4, ptr %7) #11
  %10 = load ptr, ptr %5, align 8, !tbaa !17
  %11 = call noundef zeroext i16 @_ZN11duckdb_zstdL10MEM_read16EPKv(ptr noundef %10)
  %12 = zext i16 %11 to i32
  store i32 %12, ptr %7, align 4, !tbaa !8
  %13 = load i32, ptr %7, align 4, !tbaa !8
  %14 = zext i32 %13 to i64
  %15 = shl i64 1, %14
  %16 = load ptr, ptr %3, align 8, !tbaa !17
  %17 = getelementptr inbounds nuw %"struct.duckdb_zstd::FSE_CState_t", ptr %16, i32 0, i32 0
  store i64 %15, ptr %17, align 8, !tbaa !20
  %18 = load ptr, ptr %6, align 8, !tbaa !18
  %19 = getelementptr inbounds i16, ptr %18, i64 2
  %20 = load ptr, ptr %3, align 8, !tbaa !17
  %21 = getelementptr inbounds nuw %"struct.duckdb_zstd::FSE_CState_t", ptr %20, i32 0, i32 1
  store ptr %19, ptr %21, align 8, !tbaa !21
  %22 = load ptr, ptr %4, align 8, !tbaa !3
  %23 = getelementptr inbounds i32, ptr %22, i64 1
  %24 = load i32, ptr %7, align 4, !tbaa !8
  %25 = icmp ne i32 %24, 0
  br i1 %25, label %26, label %30

26:                                               ; preds = %2
  %27 = load i32, ptr %7, align 4, !tbaa !8
  %28 = sub i32 %27, 1
  %29 = shl i32 1, %28
  br label %31

30:                                               ; preds = %2
  br label %31

31:                                               ; preds = %30, %26
  %32 = phi i32 [ %29, %26 ], [ 1, %30 ]
  %33 = sext i32 %32 to i64
  %34 = getelementptr inbounds i32, ptr %23, i64 %33
  %35 = load ptr, ptr %3, align 8, !tbaa !17
  %36 = getelementptr inbounds nuw %"struct.duckdb_zstd::FSE_CState_t", ptr %35, i32 0, i32 2
  store ptr %34, ptr %36, align 8, !tbaa !14
  %37 = load i32, ptr %7, align 4, !tbaa !8
  %38 = load ptr, ptr %3, align 8, !tbaa !17
  %39 = getelementptr inbounds nuw %"struct.duckdb_zstd::FSE_CState_t", ptr %38, i32 0, i32 3
  store i32 %37, ptr %39, align 8, !tbaa !12
  call void @llvm.lifetime.end.p0(i64 4, ptr %7) #11
  call void @llvm.lifetime.end.p0(i64 8, ptr %6) #11
  call void @llvm.lifetime.end.p0(i64 8, ptr %5) #11
  ret void
}

; Function Attrs: mustprogress uwtable
define noundef i64 @_ZN11duckdb_zstd15ZSTD_fseBitCostEPKjS1_j(ptr noundef %0, ptr noundef %1, i32 noundef %2) #0 {
  %4 = alloca i64, align 8
  %5 = alloca ptr, align 8
  %6 = alloca ptr, align 8
  %7 = alloca i32, align 4
  %8 = alloca i32, align 4
  %9 = alloca i64, align 8
  %10 = alloca i32, align 4
  %11 = alloca %"struct.duckdb_zstd::FSE_CState_t", align 8
  %12 = alloca i32, align 4
  %13 = alloca i32, align 4
  %14 = alloca i32, align 4
  %15 = alloca i32, align 4
  store ptr %0, ptr %5, align 8, !tbaa !3
  store ptr %1, ptr %6, align 8, !tbaa !3
  store i32 %2, ptr %7, align 4, !tbaa !8
  call void @llvm.lifetime.start.p0(i64 4, ptr %8) #11
  store i32 8, ptr %8, align 4, !tbaa !8
  call void @llvm.lifetime.start.p0(i64 8, ptr %9) #11
  store i64 0, ptr %9, align 8, !tbaa !10
  call void @llvm.lifetime.start.p0(i64 4, ptr %10) #11
  call void @llvm.lifetime.start.p0(i64 32, ptr %11) #11
  %16 = load ptr, ptr %5, align 8, !tbaa !3
  call void @_ZN11duckdb_zstdL14FSE_initCStateEPNS_12FSE_CState_tEPKj(ptr noundef %11, ptr noundef %16)
  %17 = load ptr, ptr %5, align 8, !tbaa !3
  %18 = call noundef i32 @_ZN11duckdb_zstdL25ZSTD_getFSEMaxSymbolValueEPKj(ptr noundef %17)
  %19 = load i32, ptr %7, align 4, !tbaa !8
  %20 = icmp ult i32 %18, %19
  br i1 %20, label %21, label %25

21:                                               ; preds = %3
  br label %22

22:                                               ; preds = %21
  br label %23

23:                                               ; preds = %22
  br label %24

24:                                               ; preds = %23
  store i64 -1, ptr %4, align 8
  store i32 1, ptr %12, align 4
  br label %77

25:                                               ; preds = %3
  store i32 0, ptr %10, align 4, !tbaa !8
  br label %26

26:                                               ; preds = %71, %25
  %27 = load i32, ptr %10, align 4, !tbaa !8
  %28 = load i32, ptr %7, align 4, !tbaa !8
  %29 = icmp ule i32 %27, %28
  br i1 %29, label %30, label %74

30:                                               ; preds = %26
  call void @llvm.lifetime.start.p0(i64 4, ptr %13) #11
  %31 = getelementptr inbounds nuw %"struct.duckdb_zstd::FSE_CState_t", ptr %11, i32 0, i32 3
  %32 = load i32, ptr %31, align 8, !tbaa !12
  store i32 %32, ptr %13, align 4, !tbaa !8
  call void @llvm.lifetime.start.p0(i64 4, ptr %14) #11
  %33 = load i32, ptr %13, align 4, !tbaa !8
  %34 = add i32 %33, 1
  %35 = shl i32 %34, 8
  store i32 %35, ptr %14, align 4, !tbaa !8
  call void @llvm.lifetime.start.p0(i64 4, ptr %15) #11
  %36 = getelementptr inbounds nuw %"struct.duckdb_zstd::FSE_CState_t", ptr %11, i32 0, i32 2
  %37 = load ptr, ptr %36, align 8, !tbaa !14
  %38 = load i32, ptr %13, align 4, !tbaa !8
  %39 = load i32, ptr %10, align 4, !tbaa !8
  %40 = call noundef i32 @_ZN11duckdb_zstdL11FSE_bitCostEPKvjjj(ptr noundef %37, i32 noundef %38, i32 noundef %39, i32 noundef 8)
  store i32 %40, ptr %15, align 4, !tbaa !8
  %41 = load ptr, ptr %6, align 8, !tbaa !3
  %42 = load i32, ptr %10, align 4, !tbaa !8
  %43 = zext i32 %42 to i64
  %44 = getelementptr inbounds nuw i32, ptr %41, i64 %43
  %45 = load i32, ptr %44, align 4, !tbaa !8
  %46 = icmp eq i32 %45, 0
  br i1 %46, label %47, label %48

47:                                               ; preds = %30
  store i32 6, ptr %12, align 4
  br label %68

48:                                               ; preds = %30
  %49 = load i32, ptr %15, align 4, !tbaa !8
  %50 = load i32, ptr %14, align 4, !tbaa !8
  %51 = icmp uge i32 %49, %50
  br i1 %51, label %52, label %56

52:                                               ; preds = %48
  br label %53

53:                                               ; preds = %52
  br label %54

54:                                               ; preds = %53
  br label %55

55:                                               ; preds = %54
  store i64 -1, ptr %4, align 8
  store i32 1, ptr %12, align 4
  br label %68

56:                                               ; preds = %48
  %57 = load ptr, ptr %6, align 8, !tbaa !3
  %58 = load i32, ptr %10, align 4, !tbaa !8
  %59 = zext i32 %58 to i64
  %60 = getelementptr inbounds nuw i32, ptr %57, i64 %59
  %61 = load i32, ptr %60, align 4, !tbaa !8
  %62 = zext i32 %61 to i64
  %63 = load i32, ptr %15, align 4, !tbaa !8
  %64 = zext i32 %63 to i64
  %65 = mul i64 %62, %64
  %66 = load i64, ptr %9, align 8, !tbaa !10
  %67 = add i64 %66, %65
  store i64 %67, ptr %9, align 8, !tbaa !10
  store i32 0, ptr %12, align 4
  br label %68

68:                                               ; preds = %56, %55, %47
  call void @llvm.lifetime.end.p0(i64 4, ptr %15) #11
  call void @llvm.lifetime.end.p0(i64 4, ptr %14) #11
  call void @llvm.lifetime.end.p0(i64 4, ptr %13) #11
  %69 = load i32, ptr %12, align 4
  switch i32 %69, label %77 [
    i32 0, label %70
    i32 6, label %71
  ]

70:                                               ; preds = %68
  br label %71

71:                                               ; preds = %70, %68
  %72 = load i32, ptr %10, align 4, !tbaa !8
  %73 = add i32 %72, 1
  store i32 %73, ptr %10, align 4, !tbaa !8
  br label %26, !llvm.loop !15

74:                                               ; preds = %26
  %75 = load i64, ptr %9, align 8, !tbaa !10
  %76 = lshr i64 %75, 8
  store i64 %76, ptr %4, align 8
  store i32 1, ptr %12, align 4
  br label %77

77:                                               ; preds = %74, %68, %24
  call void @llvm.lifetime.end.p0(i64 32, ptr %11) #11
  call void @llvm.lifetime.end.p0(i64 4, ptr %10) #11
  call void @llvm.lifetime.end.p0(i64 8, ptr %9) #11
  call void @llvm.lifetime.end.p0(i64 4, ptr %8) #11
  %78 = load i64, ptr %4, align 8
  ret i64 %78
}