; Function Attrs: mustprogress nofree norecurse nosync nounwind willreturn memory(argmem: read) uwtable
define noundef range(i64 -1, 72057594037927936) i64 @_ZN11duckdb_zstd15ZSTD_fseBitCostEPKjS1_j(ptr noundef readonly captures(none) %0, ptr noundef readonly captures(none) %1, i32 noundef %2) local_unnamed_addr #0 {
  %.val.i = load i16, ptr %0, align 1, !tbaa !3
  %4 = zext i16 %.val.i to i32
  %5 = getelementptr inbounds nuw i8, ptr %0, i64 4
  %.not.i = icmp eq i16 %.val.i, 0
  %6 = add nsw i32 %4, -1
  %7 = shl nuw i32 1, %6
  %8 = sext i32 %7 to i64
  %9 = select i1 %.not.i, i64 1, i64 %8
  %10 = getelementptr inbounds i32, ptr %5, i64 %9
  %11 = getelementptr i8, ptr %0, i64 2
  %.val = load i16, ptr %11, align 1, !tbaa !3
  %12 = zext i16 %.val to i32
  %13 = icmp ugt i32 %2, %12
  br i1 %13, label %.loopexit, label %.preheader

.preheader:                                       ; preds = %3
  %14 = shl nuw i32 1, %4
  %15 = shl nuw nsw i32 %4, 8
  %16 = add nuw nsw i32 %15, 256
  %17 = add nuw nsw i32 %2, 1
  %wide.trip.count = zext nneg i32 %17 to i64
  br label %18

18:                                               ; preds = %.preheader, %39
  %indvars.iv = phi i64 [ 0, %.preheader ], [ %indvars.iv.next, %39 ]
  %.01932 = phi i64 [ 0, %.preheader ], [ %.120.ph, %39 ]
  %19 = getelementptr inbounds nuw %"struct.duckdb_zstd::FSE_symbolCompressionTransform", ptr %10, i64 %indvars.iv, i32 1
  %20 = load i32, ptr %19, align 4, !tbaa !7
  %21 = lshr i32 %20, 16
  %22 = add nuw nsw i32 %21, 1
  %23 = add i32 %20, %14
  %24 = shl i32 %22, 24
  %25 = shl i32 %23, 8
  %26 = sub i32 %24, %25
  %27 = lshr i32 %26, %4
  %28 = shl nuw nsw i32 %22, 8
  %29 = sub i32 %28, %27
  %30 = getelementptr inbounds nuw i32, ptr %1, i64 %indvars.iv
  %31 = load i32, ptr %30, align 4, !tbaa !10
  %32 = icmp eq i32 %31, 0
  br i1 %32, label %39, label %33

33:                                               ; preds = %18
  %.not26 = icmp ult i32 %29, %16
  br i1 %.not26, label %34, label %.loopexit

34:                                               ; preds = %33
  %35 = zext i32 %31 to i64
  %36 = zext i32 %29 to i64
  %37 = mul nuw i64 %36, %35
  %38 = add i64 %37, %.01932
  br label %39

39:                                               ; preds = %34, %18
  %.120.ph = phi i64 [ %.01932, %18 ], [ %38, %34 ]
  %indvars.iv.next = add nuw nsw i64 %indvars.iv, 1
  %exitcond.not = icmp eq i64 %indvars.iv.next, %wide.trip.count
  br i1 %exitcond.not, label %40, label %18, !llvm.loop !11

40:                                               ; preds = %39
  %41 = lshr i64 %.120.ph, 8
  br label %.loopexit

.loopexit:                                        ; preds = %33, %3, %40
  %.0 = phi i64 [ %41, %40 ], [ -1, %3 ], [ -1, %33 ]
  ret i64 %.0
}